; Function Attrs: nounwind uwtable
define hidden i32 @ssl_private_key_type(ptr noundef %0) local_unnamed_addr #0 {
  %2 = getelementptr inbounds nuw i8, ptr %0, i64 136
  %3 = load ptr, ptr %2, align 8, !tbaa !6
  %4 = getelementptr inbounds nuw i8, ptr %3, i64 24
  %5 = load ptr, ptr %4, align 8, !tbaa !53
  %.not = icmp eq ptr %5, null
  br i1 %.not, label %9, label %6

6:                                                ; preds = %1
  %7 = load ptr, ptr %5, align 8, !tbaa !56
  %8 = tail call i32 %7(ptr noundef nonnull %0) #6
  br label %13

9:                                                ; preds = %1
  %10 = getelementptr inbounds nuw i8, ptr %3, i64 8
  %11 = load ptr, ptr %10, align 8, !tbaa !38
  %12 = tail call i32 @EVP_PKEY_id(ptr noundef %11) #6
  br label %13

13:                                               ; preds = %9, %6
  %.0 = phi i32 [ %8, %6 ], [ %12, %9 ]
  ret i32 %.0
}